target datalayout = "e-m:e-p270:32:32-p271:32:32-p272:64:64-i64:64-i128:128-f80:128-n8:16:32:64-S128"
target triple = "x86_64-pc-linux-gnu"

%struct.CVodeMemRec = type { ptr, double, ptr, ptr, i32, i32, double, double, ptr, i32, i32, ptr, ptr, i32, i32, ptr, i32, i32, double, double, ptr, i32, i32, i32, i32, ptr, ptr, ptr, i32, i32, ptr, ptr, ptr, i32, double, i32, i32, double, ptr, ptr, ptr, i32, ptr, ptr, i32, i32, i32, double, ptr, ptr, ptr, [13 x ptr], ptr, ptr, ptr, ptr, ptr, ptr, ptr, ptr, ptr, [13 x ptr], ptr, ptr, ptr, ptr, [13 x ptr], ptr, ptr, ptr, ptr, ptr, i32, [13 x ptr], ptr, ptr, ptr, ptr, ptr, i32, i32, double, i32, i32, i32, i32, i32, double, double, double, double, double, double, double, double, [14 x double], [6 x double], [13 x double], double, double, double, double, double, double, double, double, i32, double, double, i32, double, double, ptr, i32, i64, i32, i32, i32, double, double, double, double, double, double, double, double, double, double, double, double, i64, i32, i64, i64, i64, i64, i64, i64, i64, i64, i64, ptr, i64, i64, ptr, i64, i64, ptr, i64, i64, i64, i64, i64, i64, i32, double, double, double, i64, i64, i64, i64, i64, i64, ptr, i32, ptr, i32, ptr, i32, ptr, i32, i32, i64, i32, ptr, i32, ptr, ptr, ptr, ptr, ptr, ptr, i32, i32, ptr, ptr, ptr, ptr, ptr, i64, double, i32, i32, i64, double, double, double, i32, i32, double, i32, i32, i32, i32, i32, i32, i32, i32, i32, i32, i32, i32, i32, i32, i32, i32, ptr, i64, i32, [6 x [4 x double]], i32, i64, ptr, i32, ptr, ptr, double, double, double, ptr, ptr, ptr, double, double, i32, i32, i64, ptr, i32, ptr, i32, i32, [13 x double], ptr, ptr, ptr, i32, ptr, i32 }

@.str = private unnamed_addr constant [115 x i8] c"generated/home/dtcxzyw/WorkSpace/Projects/compilers/llvm-opt-benchmark/bench/sundials/sundials/src/cvodes/cvodes.c\00", align 1
@.str.4 = private unnamed_addr constant [26 x i8] c"cvode_mem = NULL illegal.\00", align 1
@.str.8 = private unnamed_addr constant [25 x i8] c"A memory request failed.\00", align 1
@__func__.CVodeQuadInit = private unnamed_addr constant [14 x i8] c"CVodeQuadInit\00", align 1

; Function Attrs: nounwind uwtable
define internal i32 @cvQuadAllocVectors(ptr noundef %0, ptr noundef %1) #0 {
  %3 = alloca i32, align 4
  %4 = alloca ptr, align 8
  %5 = alloca ptr, align 8
  %6 = alloca i32, align 4
  %7 = alloca i32, align 4
  %8 = alloca i32, align 4
  store ptr %0, ptr %4, align 8, !tbaa !10
  store ptr %1, ptr %5, align 8, !tbaa !151
  call void @llvm.lifetime.start.p0(i64 4, ptr %6) #10
  call void @llvm.lifetime.start.p0(i64 4, ptr %7) #10
  %9 = load ptr, ptr %5, align 8, !tbaa !151
  %10 = call ptr @N_VClone(ptr noundef %9)
  %11 = load ptr, ptr %4, align 8, !tbaa !10
  %12 = getelementptr inbounds nuw %struct.CVodeMemRec, ptr %11, i32 0, i32 62
  store ptr %10, ptr %12, align 8, !tbaa !223
  %13 = load ptr, ptr %4, align 8, !tbaa !10
  %14 = getelementptr inbounds nuw %struct.CVodeMemRec, ptr %13, i32 0, i32 62
  %15 = load ptr, ptr %14, align 8, !tbaa !223
  %16 = icmp eq ptr %15, null
  br i1 %16, label %17, label %18

17:                                               ; preds = %2
  store i32 0, ptr %3, align 4
  store i32 1, ptr %8, align 4
  br label %152

18:                                               ; preds = %2
  %19 = load ptr, ptr %5, align 8, !tbaa !151
  %20 = call ptr @N_VClone(ptr noundef %19)
  %21 = load ptr, ptr %4, align 8, !tbaa !10
  %22 = getelementptr inbounds nuw %struct.CVodeMemRec, ptr %21, i32 0, i32 64
  store ptr %20, ptr %22, align 8, !tbaa !224
  %23 = load ptr, ptr %4, align 8, !tbaa !10
  %24 = getelementptr inbounds nuw %struct.CVodeMemRec, ptr %23, i32 0, i32 64
  %25 = load ptr, ptr %24, align 8, !tbaa !224
  %26 = icmp eq ptr %25, null
  br i1 %26, label %27, label %31

27:                                               ; preds = %18
  %28 = load ptr, ptr %4, align 8, !tbaa !10
  %29 = getelementptr inbounds nuw %struct.CVodeMemRec, ptr %28, i32 0, i32 62
  %30 = load ptr, ptr %29, align 8, !tbaa !223
  call void @N_VDestroy(ptr noundef %30)
  store i32 0, ptr %3, align 4
  store i32 1, ptr %8, align 4
  br label %152

31:                                               ; preds = %18
  %32 = load ptr, ptr %5, align 8, !tbaa !151
  %33 = call ptr @N_VClone(ptr noundef %32)
  %34 = load ptr, ptr %4, align 8, !tbaa !10
  %35 = getelementptr inbounds nuw %struct.CVodeMemRec, ptr %34, i32 0, i32 63
  store ptr %33, ptr %35, align 8, !tbaa !225
  %36 = load ptr, ptr %4, align 8, !tbaa !10
  %37 = getelementptr inbounds nuw %struct.CVodeMemRec, ptr %36, i32 0, i32 63
  %38 = load ptr, ptr %37, align 8, !tbaa !225
  %39 = icmp eq ptr %38, null
  br i1 %39, label %40, label %47

40:                                               ; preds = %31
  %41 = load ptr, ptr %4, align 8, !tbaa !10
  %42 = getelementptr inbounds nuw %struct.CVodeMemRec, ptr %41, i32 0, i32 62
  %43 = load ptr, ptr %42, align 8, !tbaa !223
  call void @N_VDestroy(ptr noundef %43)
  %44 = load ptr, ptr %4, align 8, !tbaa !10
  %45 = getelementptr inbounds nuw %struct.CVodeMemRec, ptr %44, i32 0, i32 64
  %46 = load ptr, ptr %45, align 8, !tbaa !224
  call void @N_VDestroy(ptr noundef %46)
  store i32 0, ptr %3, align 4
  store i32 1, ptr %8, align 4
  br label %152

47:                                               ; preds = %31
  %48 = load ptr, ptr %5, align 8, !tbaa !151
  %49 = call ptr @N_VClone(ptr noundef %48)
  %50 = load ptr, ptr %4, align 8, !tbaa !10
  %51 = getelementptr inbounds nuw %struct.CVodeMemRec, ptr %50, i32 0, i32 65
  store ptr %49, ptr %51, align 8, !tbaa !226
  %52 = load ptr, ptr %4, align 8, !tbaa !10
  %53 = getelementptr inbounds nuw %struct.CVodeMemRec, ptr %52, i32 0, i32 65
  %54 = load ptr, ptr %53, align 8, !tbaa !226
  %55 = icmp eq ptr %54, null
  br i1 %55, label %56, label %66

56:                                               ; preds = %47
  %57 = load ptr, ptr %4, align 8, !tbaa !10
  %58 = getelementptr inbounds nuw %struct.CVodeMemRec, ptr %57, i32 0, i32 62
  %59 = load ptr, ptr %58, align 8, !tbaa !223
  call void @N_VDestroy(ptr noundef %59)
  %60 = load ptr, ptr %4, align 8, !tbaa !10
  %61 = getelementptr inbounds nuw %struct.CVodeMemRec, ptr %60, i32 0, i32 64
  %62 = load ptr, ptr %61, align 8, !tbaa !224
  call void @N_VDestroy(ptr noundef %62)
  %63 = load ptr, ptr %4, align 8, !tbaa !10
  %64 = getelementptr inbounds nuw %struct.CVodeMemRec, ptr %63, i32 0, i32 63
  %65 = load ptr, ptr %64, align 8, !tbaa !225
  call void @N_VDestroy(ptr noundef %65)
  store i32 0, ptr %3, align 4
  store i32 1, ptr %8, align 4
  br label %152

66:                                               ; preds = %47
  store i32 0, ptr %7, align 4, !tbaa !3
  br label %67

67:                                               ; preds = %117, %66
  %68 = load i32, ptr %7, align 4, !tbaa !3
  %69 = load ptr, ptr %4, align 8, !tbaa !10
  %70 = getelementptr inbounds nuw %struct.CVodeMemRec, ptr %69, i32 0, i32 113
  %71 = load i32, ptr %70, align 8, !tbaa !35
  %72 = icmp sle i32 %68, %71
  br i1 %72, label %73, label %120

73:                                               ; preds = %67
  %74 = load ptr, ptr %5, align 8, !tbaa !151
  %75 = call ptr @N_VClone(ptr noundef %74)
  %76 = load ptr, ptr %4, align 8, !tbaa !10
  %77 = getelementptr inbounds nuw %struct.CVodeMemRec, ptr %76, i32 0, i32 61
  %78 = load i32, ptr %7, align 4, !tbaa !3
  %79 = sext i32 %78 to i64
  %80 = getelementptr inbounds [13 x ptr], ptr %77, i64 0, i64 %79
  store ptr %75, ptr %80, align 8, !tbaa !151
  %81 = load ptr, ptr %4, align 8, !tbaa !10
  %82 = getelementptr inbounds nuw %struct.CVodeMemRec, ptr %81, i32 0, i32 61
  %83 = load i32, ptr %7, align 4, !tbaa !3
  %84 = sext i32 %83 to i64
  %85 = getelementptr inbounds [13 x ptr], ptr %82, i64 0, i64 %84
  %86 = load ptr, ptr %85, align 8, !tbaa !151
  %87 = icmp eq ptr %86, null
  br i1 %87, label %88, label %116

88:                                               ; preds = %73
  %89 = load ptr, ptr %4, align 8, !tbaa !10
  %90 = getelementptr inbounds nuw %struct.CVodeMemRec, ptr %89, i32 0, i32 62
  %91 = load ptr, ptr %90, align 8, !tbaa !223
  call void @N_VDestroy(ptr noundef %91)
  %92 = load ptr, ptr %4, align 8, !tbaa !10
  %93 = getelementptr inbounds nuw %struct.CVodeMemRec, ptr %92, i32 0, i32 64
  %94 = load ptr, ptr %93, align 8, !tbaa !224
  call void @N_VDestroy(ptr noundef %94)
  %95 = load ptr, ptr %4, align 8, !tbaa !10
  %96 = getelementptr inbounds nuw %struct.CVodeMemRec, ptr %95, i32 0, i32 63
  %97 = load ptr, ptr %96, align 8, !tbaa !225
  call void @N_VDestroy(ptr noundef %97)
  %98 = load ptr, ptr %4, align 8, !tbaa !10
  %99 = getelementptr inbounds nuw %struct.CVodeMemRec, ptr %98, i32 0, i32 65
  %100 = load ptr, ptr %99, align 8, !tbaa !226
  call void @N_VDestroy(ptr noundef %100)
  store i32 0, ptr %6, align 4, !tbaa !3
  br label %101

101:                                              ; preds = %112, %88
  %102 = load i32, ptr %6, align 4, !tbaa !3
  %103 = load i32, ptr %7, align 4, !tbaa !3
  %104 = icmp slt i32 %102, %103
  br i1 %104, label %105, label %115

105:                                              ; preds = %101
  %106 = load ptr, ptr %4, align 8, !tbaa !10
  %107 = getelementptr inbounds nuw %struct.CVodeMemRec, ptr %106, i32 0, i32 61
  %108 = load i32, ptr %6, align 4, !tbaa !3
  %109 = sext i32 %108 to i64
  %110 = getelementptr inbounds [13 x ptr], ptr %107, i64 0, i64 %109
  %111 = load ptr, ptr %110, align 8, !tbaa !151
  call void @N_VDestroy(ptr noundef %111)
  br label %112

112:                                              ; preds = %105
  %113 = load i32, ptr %6, align 4, !tbaa !3
  %114 = add nsw i32 %113, 1
  store i32 %114, ptr %6, align 4, !tbaa !3
  br label %101

115:                                              ; preds = %101
  store i32 0, ptr %3, align 4
  store i32 1, ptr %8, align 4
  br label %152

116:                                              ; preds = %73
  br label %117

117:                                              ; preds = %116
  %118 = load i32, ptr %7, align 4, !tbaa !3
  %119 = add nsw i32 %118, 1
  store i32 %119, ptr %7, align 4, !tbaa !3
  br label %67

120:                                              ; preds = %67
  %121 = load ptr, ptr %4, align 8, !tbaa !10
  %122 = getelementptr inbounds nuw %struct.CVodeMemRec, ptr %121, i32 0, i32 113
  %123 = load i32, ptr %122, align 8, !tbaa !35
  %124 = load ptr, ptr %4, align 8, !tbaa !10
  %125 = getelementptr inbounds nuw %struct.CVodeMemRec, ptr %124, i32 0, i32 202
  store i32 %123, ptr %125, align 4, !tbaa !108
  %126 = load ptr, ptr %4, align 8, !tbaa !10
  %127 = getelementptr inbounds nuw %struct.CVodeMemRec, ptr %126, i32 0, i32 113
  %128 = load i32, ptr %127, align 8, !tbaa !35
  %129 = add nsw i32 %128, 5
  %130 = sext i32 %129 to i64
  %131 = load ptr, ptr %4, align 8, !tbaa !10
  %132 = getelementptr inbounds nuw %struct.CVodeMemRec, ptr %131, i32 0, i32 160
  %133 = load i64, ptr %132, align 8, !tbaa !219
  %134 = mul nsw i64 %130, %133
  %135 = load ptr, ptr %4, align 8, !tbaa !10
  %136 = getelementptr inbounds nuw %struct.CVodeMemRec, ptr %135, i32 0, i32 162
  %137 = load i64, ptr %136, align 8, !tbaa !110
  %138 = add nsw i64 %137, %134
  store i64 %138, ptr %136, align 8, !tbaa !110
  %139 = load ptr, ptr %4, align 8, !tbaa !10
  %140 = getelementptr inbounds nuw %struct.CVodeMemRec, ptr %139, i32 0, i32 113
  %141 = load i32, ptr %140, align 8, !tbaa !35
  %142 = add nsw i32 %141, 5
  %143 = sext i32 %142 to i64
  %144 = load ptr, ptr %4, align 8, !tbaa !10
  %145 = getelementptr inbounds nuw %struct.CVodeMemRec, ptr %144, i32 0, i32 161
  %146 = load i64, ptr %145, align 8, !tbaa !220
  %147 = mul nsw i64 %143, %146
  %148 = load ptr, ptr %4, align 8, !tbaa !10
  %149 = getelementptr inbounds nuw %struct.CVodeMemRec, ptr %148, i32 0, i32 163
  %150 = load i64, ptr %149, align 8, !tbaa !111
  %151 = add nsw i64 %150, %147
  store i64 %151, ptr %149, align 8, !tbaa !111
  store i32 1, ptr %3, align 4
  store i32 1, ptr %8, align 4
  br label %152

152:                                              ; preds = %120, %115, %56, %40, %27, %17
  call void @llvm.lifetime.end.p0(i64 4, ptr %7) #10
  call void @llvm.lifetime.end.p0(i64 4, ptr %6) #10
  %153 = load i32, ptr %3, align 4
  ret i32 %153
}

; Function Attrs: nounwind uwtable
define i32 @CVodeQuadInit(ptr noundef %0, ptr noundef %1, ptr noundef %2) #0 {
  %4 = alloca i32, align 4
  %5 = alloca ptr, align 8
  %6 = alloca ptr, align 8
  %7 = alloca ptr, align 8
  %8 = alloca ptr, align 8
  %9 = alloca i32, align 4
  %10 = alloca i64, align 8
  %11 = alloca i64, align 8
  %12 = alloca i32, align 4
  store ptr %0, ptr %5, align 8, !tbaa !153
  store ptr %1, ptr %6, align 8, !tbaa !153
  store ptr %2, ptr %7, align 8, !tbaa !151
  call void @llvm.lifetime.start.p0(i64 8, ptr %8) #10
  call void @llvm.lifetime.start.p0(i64 4, ptr %9) #10
  call void @llvm.lifetime.start.p0(i64 8, ptr %10) #10
  call void @llvm.lifetime.start.p0(i64 8, ptr %11) #10
  %13 = load ptr, ptr %5, align 8, !tbaa !153
  %14 = icmp eq ptr %13, null
  br i1 %14, label %15, label %16

15:                                               ; preds = %3
  call void (ptr, i32, i32, ptr, ptr, ptr, ...) @cvProcessError(ptr noundef null, i32 noundef -21, i32 noundef 1163, ptr noundef @__func__.CVodeQuadInit, ptr noundef @.str, ptr noundef @.str.4)
  store i32 -21, ptr %4, align 4
  store i32 1, ptr %12, align 4
  br label %49

16:                                               ; preds = %3
  %17 = load ptr, ptr %5, align 8, !tbaa !153
  store ptr %17, ptr %8, align 8, !tbaa !10
  %18 = load ptr, ptr %7, align 8, !tbaa !151
  call void @N_VSpace(ptr noundef %18, ptr noundef %10, ptr noundef %11)
  %19 = load i64, ptr %10, align 8, !tbaa !144
  %20 = load ptr, ptr %8, align 8, !tbaa !10
  %21 = getelementptr inbounds nuw %struct.CVodeMemRec, ptr %20, i32 0, i32 160
  store i64 %19, ptr %21, align 8, !tbaa !219
  %22 = load i64, ptr %11, align 8, !tbaa !144
  %23 = load ptr, ptr %8, align 8, !tbaa !10
  %24 = getelementptr inbounds nuw %struct.CVodeMemRec, ptr %23, i32 0, i32 161
  store i64 %22, ptr %24, align 8, !tbaa !220
  %25 = load ptr, ptr %8, align 8, !tbaa !10
  %26 = load ptr, ptr %7, align 8, !tbaa !151
  %27 = call i32 @cvQuadAllocVectors(ptr noundef %25, ptr noundef %26)
  store i32 %27, ptr %9, align 4, !tbaa !3
  %28 = load i32, ptr %9, align 4, !tbaa !3
  %29 = icmp ne i32 %28, 0
  br i1 %29, label %32, label %30

30:                                               ; preds = %16
  %31 = load ptr, ptr %8, align 8, !tbaa !10
  call void (ptr, i32, i32, ptr, ptr, ptr, ...) @cvProcessError(ptr noundef %31, i32 noundef -20, i32 noundef 1177, ptr noundef @__func__.CVodeQuadInit, ptr noundef @.str, ptr noundef @.str.8)
  store i32 -20, ptr %4, align 4
  store i32 1, ptr %12, align 4
  br label %49

32:                                               ; preds = %16
  %33 = load ptr, ptr %7, align 8, !tbaa !151
  %34 = load ptr, ptr %8, align 8, !tbaa !10
  %35 = getelementptr inbounds nuw %struct.CVodeMemRec, ptr %34, i32 0, i32 61
  %36 = getelementptr inbounds [13 x ptr], ptr %35, i64 0, i64 0
  %37 = load ptr, ptr %36, align 8, !tbaa !151
  call void @N_VScale(double noundef 1.000000e+00, ptr noundef %33, ptr noundef %37)
  %38 = load ptr, ptr %6, align 8, !tbaa !153
  %39 = load ptr, ptr %8, align 8, !tbaa !10
  %40 = getelementptr inbounds nuw %struct.CVodeMemRec, ptr %39, i32 0, i32 15
  store ptr %38, ptr %40, align 8, !tbaa !76
  %41 = load ptr, ptr %8, align 8, !tbaa !10
  %42 = getelementptr inbounds nuw %struct.CVodeMemRec, ptr %41, i32 0, i32 134
  store i64 0, ptr %42, align 8, !tbaa !221
  %43 = load ptr, ptr %8, align 8, !tbaa !10
  %44 = getelementptr inbounds nuw %struct.CVodeMemRec, ptr %43, i32 0, i32 149
  store i64 0, ptr %44, align 8, !tbaa !222
  %45 = load ptr, ptr %8, align 8, !tbaa !10
  %46 = getelementptr inbounds nuw %struct.CVodeMemRec, ptr %45, i32 0, i32 14
  store i32 1, ptr %46, align 4, !tbaa !75
  %47 = load ptr, ptr %8, align 8, !tbaa !10
  %48 = getelementptr inbounds nuw %struct.CVodeMemRec, ptr %47, i32 0, i32 210
  store i32 1, ptr %48, align 4, !tbaa !116
  store i32 0, ptr %4, align 4
  store i32 1, ptr %12, align 4
  br label %49

49:                                               ; preds = %32, %30, %15
  call void @llvm.lifetime.end.p0(i64 8, ptr %11) #10
  call void @llvm.lifetime.end.p0(i64 8, ptr %10) #10
  call void @llvm.lifetime.end.p0(i64 4, ptr %9) #10
  call void @llvm.lifetime.end.p0(i64 8, ptr %8) #10
  %50 = load i32, ptr %4, align 4
  ret i32 %50
}