; Function Attrs: nounwind uwtable
define range(i32 -21, 1) i32 @CVodeQuadInit(ptr noundef captures(address_is_null) %0, ptr noundef %1, ptr noundef %2) local_unnamed_addr #0 {
  %4 = alloca i64, align 8
  %5 = alloca i64, align 8
  call void @llvm.lifetime.start.p0(i64 8, ptr nonnull %4) #13
  call void @llvm.lifetime.start.p0(i64 8, ptr nonnull %5) #13
  %6 = icmp eq ptr %0, null
  br i1 %6, label %7, label %8

7:                                                ; preds = %3
  tail call void (ptr, i32, i32, ptr, ptr, ptr, ...) @cvProcessError(ptr noundef null, i32 noundef -21, i32 noundef 1163, ptr noundef nonnull @__func__.CVodeQuadInit, ptr noundef nonnull @.str, ptr noundef nonnull @.str.4)
  br label %67

8:                                                ; preds = %3
  call void @N_VSpace(ptr noundef %2, ptr noundef nonnull %4, ptr noundef nonnull %5) #13
  %9 = load i64, ptr %4, align 8, !tbaa !94
  %10 = getelementptr inbounds nuw i8, ptr %0, i64 1800
  store i64 %9, ptr %10, align 8, !tbaa !139
  %11 = load i64, ptr %5, align 8, !tbaa !94
  %12 = getelementptr inbounds nuw i8, ptr %0, i64 1808
  store i64 %11, ptr %12, align 8, !tbaa !140
  %13 = call ptr @N_VClone(ptr noundef %2) #13
  %14 = getelementptr inbounds nuw i8, ptr %0, i64 616
  store ptr %13, ptr %14, align 8, !tbaa !141
  %15 = icmp eq ptr %13, null
  br i1 %15, label %.loopexit, label %16

16:                                               ; preds = %8
  %17 = call ptr @N_VClone(ptr noundef %2) #13
  %18 = getelementptr inbounds nuw i8, ptr %0, i64 632
  store ptr %17, ptr %18, align 8, !tbaa !142
  %19 = icmp eq ptr %17, null
  br i1 %19, label %.loopexit.sink.split, label %20

20:                                               ; preds = %16
  %21 = call ptr @N_VClone(ptr noundef %2) #13
  %22 = getelementptr inbounds nuw i8, ptr %0, i64 624
  store ptr %21, ptr %22, align 8, !tbaa !143
  %23 = icmp eq ptr %21, null
  br i1 %23, label %.loopexit.sink.split.sink.split, label %24

24:                                               ; preds = %20
  %25 = call ptr @N_VClone(ptr noundef %2) #13
  %26 = getelementptr inbounds nuw i8, ptr %0, i64 640
  store ptr %25, ptr %26, align 8, !tbaa !144
  %27 = icmp eq ptr %25, null
  br i1 %27, label %31, label %.preheader.i

.preheader.i:                                     ; preds = %24
  %28 = getelementptr inbounds nuw i8, ptr %0, i64 1432
  %29 = load i32, ptr %28, align 8, !tbaa !23
  %.not49.i = icmp slt i32 %29, 0
  br i1 %.not49.i, label %.loopexit20, label %.lr.ph.i

.lr.ph.i:                                         ; preds = %.preheader.i
  %30 = getelementptr inbounds nuw i8, ptr %0, i64 512
  br label %33

31:                                               ; preds = %24
  %32 = load ptr, ptr %14, align 8, !tbaa !141
  call void @N_VDestroy(ptr noundef %32) #13
  br label %.loopexit.sink.split.sink.split

33:                                               ; preds = %44, %.lr.ph.i
  %indvars.iv.i = phi i64 [ 0, %.lr.ph.i ], [ %indvars.iv.next.i, %44 ]
  %34 = call ptr @N_VClone(ptr noundef %2) #13
  %35 = getelementptr inbounds nuw [13 x ptr], ptr %30, i64 0, i64 %indvars.iv.i
  store ptr %34, ptr %35, align 8, !tbaa !65
  %36 = icmp eq ptr %34, null
  br i1 %36, label %37, label %44

37:                                               ; preds = %33
  %38 = load ptr, ptr %14, align 8, !tbaa !141
  call void @N_VDestroy(ptr noundef %38) #13
  %39 = load ptr, ptr %18, align 8, !tbaa !142
  call void @N_VDestroy(ptr noundef %39) #13
  %40 = load ptr, ptr %22, align 8, !tbaa !143
  call void @N_VDestroy(ptr noundef %40) #13
  %41 = load ptr, ptr %26, align 8, !tbaa !144
  call void @N_VDestroy(ptr noundef %41) #13
  %.not.i = icmp eq i64 %indvars.iv.i, 0
  br i1 %.not.i, label %.loopexit, label %.lr.ph53.preheader.i

.lr.ph53.preheader.i:                             ; preds = %37
  %wide.trip.count.i = and i64 %indvars.iv.i, 4294967295
  br label %.lr.ph53.i

.lr.ph53.i:                                       ; preds = %.lr.ph53.i, %.lr.ph53.preheader.i
  %indvars.iv57.i = phi i64 [ 0, %.lr.ph53.preheader.i ], [ %indvars.iv.next58.i, %.lr.ph53.i ]
  %42 = getelementptr inbounds nuw [13 x ptr], ptr %30, i64 0, i64 %indvars.iv57.i
  %43 = load ptr, ptr %42, align 8, !tbaa !65
  call void @N_VDestroy(ptr noundef %43) #13
  %indvars.iv.next58.i = add nuw nsw i64 %indvars.iv57.i, 1
  %exitcond.not.i = icmp eq i64 %indvars.iv.next58.i, %wide.trip.count.i
  br i1 %exitcond.not.i, label %.loopexit, label %.lr.ph53.i

44:                                               ; preds = %33
  %indvars.iv.next.i = add nuw nsw i64 %indvars.iv.i, 1
  %45 = load i32, ptr %28, align 8, !tbaa !23
  %46 = sext i32 %45 to i64
  %.not.not.i = icmp slt i64 %indvars.iv.i, %46
  br i1 %.not.not.i, label %33, label %.loopexit20

.loopexit.sink.split.sink.split:                  ; preds = %20, %31
  %.sink28.in = phi ptr [ %18, %31 ], [ %14, %20 ]
  %.sink.in.ph = phi ptr [ %22, %31 ], [ %18, %20 ]
  %.sink28 = load ptr, ptr %.sink28.in, align 8, !tbaa !65
  call void @N_VDestroy(ptr noundef %.sink28) #13
  br label %.loopexit.sink.split

.loopexit.sink.split:                             ; preds = %.loopexit.sink.split.sink.split, %16
  %.sink.in = phi ptr [ %14, %16 ], [ %.sink.in.ph, %.loopexit.sink.split.sink.split ]
  %.sink = load ptr, ptr %.sink.in, align 8, !tbaa !65
  call void @N_VDestroy(ptr noundef %.sink) #13
  br label %.loopexit

.loopexit:                                        ; preds = %.lr.ph53.i, %.loopexit.sink.split, %8, %37
  call void (ptr, i32, i32, ptr, ptr, ptr, ...) @cvProcessError(ptr noundef nonnull %0, i32 noundef -20, i32 noundef 1177, ptr noundef nonnull @__func__.CVodeQuadInit, ptr noundef nonnull @.str, ptr noundef nonnull @.str.8)
  br label %67

.loopexit20:                                      ; preds = %44, %.preheader.i
  %.lcssa.i = phi i32 [ %29, %.preheader.i ], [ %45, %44 ]
  %47 = getelementptr inbounds nuw i8, ptr %0, i64 2100
  store i32 %.lcssa.i, ptr %47, align 4, !tbaa !50
  %48 = add nsw i32 %.lcssa.i, 5
  %49 = sext i32 %48 to i64
  %50 = load i64, ptr %10, align 8, !tbaa !139
  %51 = mul nsw i64 %50, %49
  %52 = getelementptr inbounds nuw i8, ptr %0, i64 1816
  %53 = load i64, ptr %52, align 8, !tbaa !52
  %54 = add nsw i64 %53, %51
  store i64 %54, ptr %52, align 8, !tbaa !52
  %55 = load i64, ptr %12, align 8, !tbaa !140
  %56 = mul nsw i64 %55, %49
  %57 = getelementptr inbounds nuw i8, ptr %0, i64 1824
  %58 = load i64, ptr %57, align 8, !tbaa !53
  %59 = add nsw i64 %58, %56
  store i64 %59, ptr %57, align 8, !tbaa !53
  %60 = getelementptr inbounds nuw i8, ptr %0, i64 512
  %61 = load ptr, ptr %60, align 8, !tbaa !65
  call void @N_VScale(double noundef 1.000000e+00, ptr noundef %2, ptr noundef %61) #13
  %62 = getelementptr inbounds nuw i8, ptr %0, i64 96
  store ptr %1, ptr %62, align 8, !tbaa !145
  %63 = getelementptr inbounds nuw i8, ptr %0, i64 1592
  store i64 0, ptr %63, align 8, !tbaa !146
  %64 = getelementptr inbounds nuw i8, ptr %0, i64 1712
  store i64 0, ptr %64, align 8, !tbaa !147
  %65 = getelementptr inbounds nuw i8, ptr %0, i64 92
  store i32 1, ptr %65, align 4, !tbaa !148
  %66 = getelementptr inbounds nuw i8, ptr %0, i64 2132
  store i32 1, ptr %66, align 4, !tbaa !149
  br label %67

67:                                               ; preds = %.loopexit20, %.loopexit, %7
  %.0 = phi i32 [ -21, %7 ], [ 0, %.loopexit20 ], [ -20, %.loopexit ]
  call void @llvm.lifetime.end.p0(i64 8, ptr nonnull %5) #13
  call void @llvm.lifetime.end.p0(i64 8, ptr nonnull %4) #13
  ret i32 %.0
}